target datalayout = "e-m:e-p270:32:32-p271:32:32-p272:64:64-i64:64-i128:128-f80:128-n8:16:32:64-S128"
target triple = "x86_64-pc-linux-gnu"

%struct.BufferUsage = type { i64, i64, i64, i64, i64, i64, i64, i64, i64, i64, %struct.instr_time, %struct.instr_time, %struct.instr_time, %struct.instr_time, %struct.instr_time, %struct.instr_time }
%struct.instr_time = type { i64 }
%struct.ExplainState = type { ptr, i8, i8, i8, i8, i8, i8, i8, i8, i8, i8, i32, i32, i32, ptr, ptr, ptr, ptr, ptr, ptr, i8, i32, ptr }
%struct.PlanState = type { i32, ptr, ptr, ptr, ptr, ptr, ptr, ptr, ptr, ptr, ptr, ptr, ptr, ptr, ptr, ptr, ptr, ptr, i8, ptr, ptr, ptr, ptr, ptr, i8, i8, i8, i8, i8, i8, i8, i8 }
%struct.Instrumentation = type { i8, i8, i8, i8, i8, %struct.instr_time, %struct.instr_time, double, double, %struct.BufferUsage, %struct.WalUsage, double, double, double, double, double, double, double, %struct.BufferUsage, %struct.WalUsage }
%struct.WalUsage = type { i64, i64, i64, i64 }

@.str.56 = private unnamed_addr constant [5 x i8] c"%.*f\00", align 1

; Function Attrs: nounwind uwtable
define dso_local void @ExplainPropertyFloat(ptr noundef %0, ptr noundef %1, double noundef %2, i32 noundef %3, ptr noundef %4) #0 {
  %6 = alloca ptr, align 8
  %7 = alloca ptr, align 8
  %8 = alloca double, align 8
  %9 = alloca i32, align 4
  %10 = alloca ptr, align 8
  %11 = alloca ptr, align 8
  store ptr %0, ptr %6, align 8
  store ptr %1, ptr %7, align 8
  store double %2, ptr %8, align 8
  store i32 %3, ptr %9, align 4
  store ptr %4, ptr %10, align 8
  call void @llvm.lifetime.start.p0(i64 8, ptr %11) #10
  %12 = load i32, ptr %9, align 4
  %13 = load double, ptr %8, align 8
  %14 = call ptr (ptr, ...) @psprintf(ptr noundef @.str.56, i32 noundef %12, double noundef %13)
  store ptr %14, ptr %11, align 8
  %15 = load ptr, ptr %6, align 8
  %16 = load ptr, ptr %7, align 8
  %17 = load ptr, ptr %11, align 8
  %18 = load ptr, ptr %10, align 8
  call void @ExplainProperty(ptr noundef %15, ptr noundef %16, ptr noundef %17, i1 noundef zeroext true, ptr noundef %18)
  %19 = load ptr, ptr %11, align 8
  call void @pfree(ptr noundef %19)
  call void @llvm.lifetime.end.p0(i64 8, ptr %11) #10
  ret void
}

; Function Attrs: nounwind uwtable
define internal void @show_instrumentation_count(ptr noundef %0, i32 noundef %1, ptr noundef %2, ptr noundef %3) #0 {
  %5 = alloca ptr, align 8
  %6 = alloca i32, align 4
  %7 = alloca ptr, align 8
  %8 = alloca ptr, align 8
  %9 = alloca double, align 8
  %10 = alloca double, align 8
  %11 = alloca i32, align 4
  store ptr %0, ptr %5, align 8
  store i32 %1, ptr %6, align 4
  store ptr %2, ptr %7, align 8
  store ptr %3, ptr %8, align 8
  call void @llvm.lifetime.start.p0(i64 8, ptr %9) #10
  call void @llvm.lifetime.start.p0(i64 8, ptr %10) #10
  %12 = load ptr, ptr %8, align 8
  %13 = getelementptr inbounds nuw %struct.ExplainState, ptr %12, i32 0, i32 2
  %14 = load i8, ptr %13, align 1, !range !6, !noundef !7
  %15 = trunc i8 %14 to i1
  br i1 %15, label %16, label %21

16:                                               ; preds = %4
  %17 = load ptr, ptr %7, align 8
  %18 = getelementptr inbounds nuw %struct.PlanState, ptr %17, i32 0, i32 5
  %19 = load ptr, ptr %18, align 8
  %20 = icmp ne ptr %19, null
  br i1 %20, label %22, label %21

21:                                               ; preds = %16, %4
  store i32 1, ptr %11, align 4
  br label %64

22:                                               ; preds = %16
  %23 = load i32, ptr %6, align 4
  %24 = icmp eq i32 %23, 2
  br i1 %24, label %25, label %31

25:                                               ; preds = %22
  %26 = load ptr, ptr %7, align 8
  %27 = getelementptr inbounds nuw %struct.PlanState, ptr %26, i32 0, i32 5
  %28 = load ptr, ptr %27, align 8
  %29 = getelementptr inbounds nuw %struct.Instrumentation, ptr %28, i32 0, i32 17
  %30 = load double, ptr %29, align 8
  store double %30, ptr %9, align 8
  br label %37

31:                                               ; preds = %22
  %32 = load ptr, ptr %7, align 8
  %33 = getelementptr inbounds nuw %struct.PlanState, ptr %32, i32 0, i32 5
  %34 = load ptr, ptr %33, align 8
  %35 = getelementptr inbounds nuw %struct.Instrumentation, ptr %34, i32 0, i32 16
  %36 = load double, ptr %35, align 8
  store double %36, ptr %9, align 8
  br label %37

37:                                               ; preds = %31, %25
  %38 = load ptr, ptr %7, align 8
  %39 = getelementptr inbounds nuw %struct.PlanState, ptr %38, i32 0, i32 5
  %40 = load ptr, ptr %39, align 8
  %41 = getelementptr inbounds nuw %struct.Instrumentation, ptr %40, i32 0, i32 15
  %42 = load double, ptr %41, align 8
  store double %42, ptr %10, align 8
  %43 = load double, ptr %9, align 8
  %44 = fcmp ogt double %43, 0.000000e+00
  br i1 %44, label %50, label %45

45:                                               ; preds = %37
  %46 = load ptr, ptr %8, align 8
  %47 = getelementptr inbounds nuw %struct.ExplainState, ptr %46, i32 0, i32 12
  %48 = load i32, ptr %47, align 8
  %49 = icmp ne i32 %48, 0
  br i1 %49, label %50, label %63

50:                                               ; preds = %45, %37
  %51 = load double, ptr %10, align 8
  %52 = fcmp ogt double %51, 0.000000e+00
  br i1 %52, label %53, label %59

53:                                               ; preds = %50
  %54 = load ptr, ptr %5, align 8
  %55 = load double, ptr %9, align 8
  %56 = load double, ptr %10, align 8
  %57 = fdiv double %55, %56
  %58 = load ptr, ptr %8, align 8
  call void @ExplainPropertyFloat(ptr noundef %54, ptr noundef null, double noundef %57, i32 noundef 0, ptr noundef %58)
  br label %62

59:                                               ; preds = %50
  %60 = load ptr, ptr %5, align 8
  %61 = load ptr, ptr %8, align 8
  call void @ExplainPropertyFloat(ptr noundef %60, ptr noundef null, double noundef 0.000000e+00, i32 noundef 0, ptr noundef %61)
  br label %62

62:                                               ; preds = %59, %53
  br label %63

63:                                               ; preds = %62, %45
  store i32 0, ptr %11, align 4
  br label %64

64:                                               ; preds = %63, %21
  call void @llvm.lifetime.end.p0(i64 8, ptr %10) #10
  call void @llvm.lifetime.end.p0(i64 8, ptr %9) #10
  %65 = load i32, ptr %11, align 4
  switch i32 %65, label %67 [
    i32 0, label %66
    i32 1, label %66
  ]

66:                                               ; preds = %64, %64
  ret void

67:                                               ; preds = %64
  unreachable
}