; Function Attrs: nounwind uwtable
define internal fastcc void @show_instrumentation_count(ptr noundef %0, i32 noundef range(i32 1, 3) %1, ptr noundef readonly captures(none) %2, ptr noundef readonly captures(none) %3) unnamed_addr #0 {
  %5 = getelementptr inbounds nuw i8, ptr %3, i64 9
  %6 = load i8, ptr %5, align 1, !range !4, !noundef !5
  %7 = trunc nuw i8 %6 to i1
  br i1 %7, label %8, label %22

8:                                                ; preds = %4
  %9 = getelementptr inbounds nuw i8, ptr %2, i64 40
  %10 = load ptr, ptr %9, align 8
  %.not = icmp eq ptr %10, null
  br i1 %.not, label %22, label %11

11:                                               ; preds = %8
  %12 = icmp eq i32 %1, 2
  %.0.in.v = select i1 %12, i64 248, i64 240
  %.0.in = getelementptr inbounds nuw i8, ptr %10, i64 %.0.in.v
  %.0 = load double, ptr %.0.in, align 8
  %13 = getelementptr inbounds nuw i8, ptr %10, i64 232
  %14 = load double, ptr %13, align 8
  %15 = fcmp ogt double %.0, 0.000000e+00
  br i1 %15, label %.sink.split, label %16

16:                                               ; preds = %11
  %17 = getelementptr inbounds nuw i8, ptr %3, i64 24
  %18 = load i32, ptr %17, align 8
  %.not16 = icmp eq i32 %18, 0
  br i1 %.not16, label %22, label %.sink.split

.sink.split:                                      ; preds = %16, %11
  %19 = fcmp ogt double %14, 0.000000e+00
  %20 = fdiv double %.0, %14
  %.sink18 = select i1 %19, double %20, double 0.000000e+00
  %21 = tail call ptr (ptr, ...) @psprintf(ptr noundef nonnull @.str.56, i32 noundef 0, double noundef %.sink18) #13
  tail call fastcc void @ExplainProperty(ptr noundef %0, ptr noundef null, ptr noundef %21, i1 noundef zeroext true, ptr noundef nonnull readonly %3)
  tail call void @pfree(ptr noundef %21) #13
  br label %22

22:                                               ; preds = %.sink.split, %16, %4, %8
  ret void
}